; ModuleID = 'source-C-CXX/20/226.c'
source_filename = "source-C-CXX/20/226.c"
target datalayout = "e-m:e-p270:32:32-p271:32:32-p272:64:64-i64:64-f80:128-n8:16:32:64-S128"
target triple = "x86_64-pc-linux-gnu"

@.str = private unnamed_addr constant [3 x i8] c"%d\00", align 1
@.str.1 = private unnamed_addr constant [6 x i8] c"%d,%d\00", align 1

; Function Attrs: nofree nounwind sspstrong uwtable
define dso_local void @main() local_unnamed_addr #0 {
  %1 = alloca i32, align 4
  %2 = alloca [300 x i32], align 16
  %3 = bitcast i32* %1 to i8*
  call void @llvm.lifetime.start.p0i8(i64 4, i8* nonnull %3) #4
  %4 = bitcast [300 x i32]* %2 to i8*
  call void @llvm.lifetime.start.p0i8(i64 1200, i8* nonnull %4) #4
  %5 = call i32 (i8*, ...) @__isoc99_scanf(i8* getelementptr inbounds ([3 x i8], [3 x i8]* @.str, i64 0, i64 0), i32* nonnull %1)
  %6 = load i32, i32* %1, align 4, !tbaa !5
  %7 = icmp sgt i32 %6, 0
  br i1 %7, label %11, label %8

8:                                                ; preds = %0
  %9 = sitofp i32 %6 to float
  %10 = fdiv float 0.000000e+00, %9
  br label %205

11:                                               ; preds = %0, %11
  %12 = phi i64 [ %19, %11 ], [ 0, %0 ]
  %13 = phi float [ %18, %11 ], [ 0.000000e+00, %0 ]
  %14 = getelementptr inbounds [300 x i32], [300 x i32]* %2, i64 0, i64 %12
  %15 = call i32 (i8*, ...) @__isoc99_scanf(i8* getelementptr inbounds ([3 x i8], [3 x i8]* @.str, i64 0, i64 0), i32* nonnull %14)
  %16 = load i32, i32* %14, align 4, !tbaa !5
  %17 = sitofp i32 %16 to float
  %18 = fadd float %13, %17
  %19 = add nuw nsw i64 %12, 1
  %20 = load i32, i32* %1, align 4, !tbaa !5
  %21 = sext i32 %20 to i64
  %22 = icmp slt i64 %19, %21
  br i1 %22, label %11, label %23, !llvm.loop !9

23:                                               ; preds = %11
  %24 = getelementptr inbounds [300 x i32], [300 x i32]* %2, i64 0, i64 0
  %25 = load i32, i32* %24, align 16, !tbaa !5
  %26 = sitofp i32 %20 to float
  %27 = fdiv float %18, %26
  %28 = icmp sgt i32 %20, 0
  br i1 %28, label %29, label %205

29:                                               ; preds = %23
  %30 = zext i32 %20 to i64
  %31 = icmp eq i32 %20, 1
  br i1 %31, label %107, label %32, !llvm.loop !11

32:                                               ; preds = %29
  %33 = add nsw i64 %30, -1
  %34 = icmp ult i64 %33, 8
  br i1 %34, label %104, label %35

35:                                               ; preds = %32
  %36 = and i64 %33, -8
  %37 = or i64 %36, 1
  %38 = insertelement <4 x i32> poison, i32 %25, i32 0
  %39 = shufflevector <4 x i32> %38, <4 x i32> poison, <4 x i32> zeroinitializer
  %40 = add nsw i64 %36, -8
  %41 = lshr exact i64 %40, 3
  %42 = add nuw nsw i64 %41, 1
  %43 = and i64 %42, 1
  %44 = icmp eq i64 %40, 0
  br i1 %44, label %79, label %45

45:                                               ; preds = %35
  %46 = and i64 %42, 4611686018427387902
  br label %47

47:                                               ; preds = %47, %45
  %48 = phi i64 [ 0, %45 ], [ %74, %47 ]
  %49 = phi <4 x i32> [ %39, %45 ], [ %72, %47 ]
  %50 = phi <4 x i32> [ %39, %45 ], [ %73, %47 ]
  %51 = phi i64 [ %46, %45 ], [ %75, %47 ]
  %52 = or i64 %48, 1
  %53 = getelementptr inbounds [300 x i32], [300 x i32]* %2, i64 0, i64 %52
  %54 = bitcast i32* %53 to <4 x i32>*
  %55 = load <4 x i32>, <4 x i32>* %54, align 4, !tbaa !5
  %56 = getelementptr inbounds i32, i32* %53, i64 4
  %57 = bitcast i32* %56 to <4 x i32>*
  %58 = load <4 x i32>, <4 x i32>* %57, align 4, !tbaa !5
  %59 = icmp sgt <4 x i32> %55, %49
  %60 = icmp sgt <4 x i32> %58, %50
  %61 = select <4 x i1> %59, <4 x i32> %55, <4 x i32> %49
  %62 = select <4 x i1> %60, <4 x i32> %58, <4 x i32> %50
  %63 = or i64 %48, 9
  %64 = getelementptr inbounds [300 x i32], [300 x i32]* %2, i64 0, i64 %63
  %65 = bitcast i32* %64 to <4 x i32>*
  %66 = load <4 x i32>, <4 x i32>* %65, align 4, !tbaa !5
  %67 = getelementptr inbounds i32, i32* %64, i64 4
  %68 = bitcast i32* %67 to <4 x i32>*
  %69 = load <4 x i32>, <4 x i32>* %68, align 4, !tbaa !5
  %70 = icmp sgt <4 x i32> %66, %61
  %71 = icmp sgt <4 x i32> %69, %62
  %72 = select <4 x i1> %70, <4 x i32> %66, <4 x i32> %61
  %73 = select <4 x i1> %71, <4 x i32> %69, <4 x i32> %62
  %74 = add nuw i64 %48, 16
  %75 = add i64 %51, -2
  %76 = icmp eq i64 %75, 0
  br i1 %76, label %77, label %47, !llvm.loop !12

77:                                               ; preds = %47
  %78 = or i64 %74, 1
  br label %79

79:                                               ; preds = %77, %35
  %80 = phi <4 x i32> [ undef, %35 ], [ %72, %77 ]
  %81 = phi <4 x i32> [ undef, %35 ], [ %73, %77 ]
  %82 = phi i64 [ 1, %35 ], [ %78, %77 ]
  %83 = phi <4 x i32> [ %39, %35 ], [ %72, %77 ]
  %84 = phi <4 x i32> [ %39, %35 ], [ %73, %77 ]
  %85 = icmp eq i64 %43, 0
  br i1 %85, label %97, label %86

86:                                               ; preds = %79
  %87 = getelementptr inbounds [300 x i32], [300 x i32]* %2, i64 0, i64 %82
  %88 = bitcast i32* %87 to <4 x i32>*
  %89 = load <4 x i32>, <4 x i32>* %88, align 4, !tbaa !5
  %90 = getelementptr inbounds i32, i32* %87, i64 4
  %91 = bitcast i32* %90 to <4 x i32>*
  %92 = load <4 x i32>, <4 x i32>* %91, align 4, !tbaa !5
  %93 = icmp sgt <4 x i32> %92, %84
  %94 = select <4 x i1> %93, <4 x i32> %92, <4 x i32> %84
  %95 = icmp sgt <4 x i32> %89, %83
  %96 = select <4 x i1> %95, <4 x i32> %89, <4 x i32> %83
  br label %97

97:                                               ; preds = %79, %86
  %98 = phi <4 x i32> [ %80, %79 ], [ %96, %86 ]
  %99 = phi <4 x i32> [ %81, %79 ], [ %94, %86 ]
  %100 = icmp sgt <4 x i32> %98, %99
  %101 = select <4 x i1> %100, <4 x i32> %98, <4 x i32> %99
  %102 = call i32 @llvm.vector.reduce.smax.v4i32(<4 x i32> %101)
  %103 = icmp eq i64 %33, %36
  br i1 %103, label %107, label %104

104:                                              ; preds = %32, %97
  %105 = phi i64 [ 1, %32 ], [ %37, %97 ]
  %106 = phi i32 [ %25, %32 ], [ %102, %97 ]
  br label %187

107:                                              ; preds = %187, %97, %29
  %108 = phi i32 [ %25, %29 ], [ %102, %97 ], [ %193, %187 ]
  br i1 %28, label %109, label %205

109:                                              ; preds = %107
  %110 = zext i32 %20 to i64
  %111 = icmp eq i32 %20, 1
  br i1 %111, label %205, label %112, !llvm.loop !14

112:                                              ; preds = %109
  %113 = add nsw i64 %30, -1
  %114 = icmp ult i64 %113, 8
  br i1 %114, label %184, label %115

115:                                              ; preds = %112
  %116 = and i64 %113, -8
  %117 = or i64 %116, 1
  %118 = insertelement <4 x i32> poison, i32 %25, i32 0
  %119 = shufflevector <4 x i32> %118, <4 x i32> poison, <4 x i32> zeroinitializer
  %120 = add nsw i64 %116, -8
  %121 = lshr exact i64 %120, 3
  %122 = add nuw nsw i64 %121, 1
  %123 = and i64 %122, 1
  %124 = icmp eq i64 %120, 0
  br i1 %124, label %159, label %125

125:                                              ; preds = %115
  %126 = and i64 %122, 4611686018427387902
  br label %127

127:                                              ; preds = %127, %125
  %128 = phi i64 [ 0, %125 ], [ %154, %127 ]
  %129 = phi <4 x i32> [ %119, %125 ], [ %152, %127 ]
  %130 = phi <4 x i32> [ %119, %125 ], [ %153, %127 ]
  %131 = phi i64 [ %126, %125 ], [ %155, %127 ]
  %132 = or i64 %128, 1
  %133 = getelementptr inbounds [300 x i32], [300 x i32]* %2, i64 0, i64 %132
  %134 = bitcast i32* %133 to <4 x i32>*
  %135 = load <4 x i32>, <4 x i32>* %134, align 4, !tbaa !5
  %136 = getelementptr inbounds i32, i32* %133, i64 4
  %137 = bitcast i32* %136 to <4 x i32>*
  %138 = load <4 x i32>, <4 x i32>* %137, align 4, !tbaa !5
  %139 = icmp slt <4 x i32> %135, %129
  %140 = icmp slt <4 x i32> %138, %130
  %141 = select <4 x i1> %139, <4 x i32> %135, <4 x i32> %129
  %142 = select <4 x i1> %140, <4 x i32> %138, <4 x i32> %130
  %143 = or i64 %128, 9
  %144 = getelementptr inbounds [300 x i32], [300 x i32]* %2, i64 0, i64 %143
  %145 = bitcast i32* %144 to <4 x i32>*
  %146 = load <4 x i32>, <4 x i32>* %145, align 4, !tbaa !5
  %147 = getelementptr inbounds i32, i32* %144, i64 4
  %148 = bitcast i32* %147 to <4 x i32>*
  %149 = load <4 x i32>, <4 x i32>* %148, align 4, !tbaa !5
  %150 = icmp slt <4 x i32> %146, %141
  %151 = icmp slt <4 x i32> %149, %142
  %152 = select <4 x i1> %150, <4 x i32> %146, <4 x i32> %141
  %153 = select <4 x i1> %151, <4 x i32> %149, <4 x i32> %142
  %154 = add nuw i64 %128, 16
  %155 = add i64 %131, -2
  %156 = icmp eq i64 %155, 0
  br i1 %156, label %157, label %127, !llvm.loop !15

157:                                              ; preds = %127
  %158 = or i64 %154, 1
  br label %159

159:                                              ; preds = %157, %115
  %160 = phi <4 x i32> [ undef, %115 ], [ %152, %157 ]
  %161 = phi <4 x i32> [ undef, %115 ], [ %153, %157 ]
  %162 = phi i64 [ 1, %115 ], [ %158, %157 ]
  %163 = phi <4 x i32> [ %119, %115 ], [ %152, %157 ]
  %164 = phi <4 x i32> [ %119, %115 ], [ %153, %157 ]
  %165 = icmp eq i64 %123, 0
  br i1 %165, label %177, label %166

166:                                              ; preds = %159
  %167 = getelementptr inbounds [300 x i32], [300 x i32]* %2, i64 0, i64 %162
  %168 = bitcast i32* %167 to <4 x i32>*
  %169 = load <4 x i32>, <4 x i32>* %168, align 4, !tbaa !5
  %170 = getelementptr inbounds i32, i32* %167, i64 4
  %171 = bitcast i32* %170 to <4 x i32>*
  %172 = load <4 x i32>, <4 x i32>* %171, align 4, !tbaa !5
  %173 = icmp slt <4 x i32> %172, %164
  %174 = select <4 x i1> %173, <4 x i32> %172, <4 x i32> %164
  %175 = icmp slt <4 x i32> %169, %163
  %176 = select <4 x i1> %175, <4 x i32> %169, <4 x i32> %163
  br label %177

177:                                              ; preds = %159, %166
  %178 = phi <4 x i32> [ %160, %159 ], [ %176, %166 ]
  %179 = phi <4 x i32> [ %161, %159 ], [ %174, %166 ]
  %180 = icmp slt <4 x i32> %178, %179
  %181 = select <4 x i1> %180, <4 x i32> %178, <4 x i32> %179
  %182 = call i32 @llvm.vector.reduce.smin.v4i32(<4 x i32> %181)
  %183 = icmp eq i64 %113, %116
  br i1 %183, label %205, label %184

184:                                              ; preds = %112, %177
  %185 = phi i64 [ 1, %112 ], [ %117, %177 ]
  %186 = phi i32 [ %25, %112 ], [ %182, %177 ]
  br label %196

187:                                              ; preds = %104, %187
  %188 = phi i64 [ %194, %187 ], [ %105, %104 ]
  %189 = phi i32 [ %193, %187 ], [ %106, %104 ]
  %190 = getelementptr inbounds [300 x i32], [300 x i32]* %2, i64 0, i64 %188
  %191 = load i32, i32* %190, align 4, !tbaa !5
  %192 = icmp sgt i32 %191, %189
  %193 = select i1 %192, i32 %191, i32 %189
  %194 = add nuw nsw i64 %188, 1
  %195 = icmp eq i64 %194, %30
  br i1 %195, label %107, label %187, !llvm.loop !16

196:                                              ; preds = %184, %196
  %197 = phi i64 [ %203, %196 ], [ %185, %184 ]
  %198 = phi i32 [ %202, %196 ], [ %186, %184 ]
  %199 = getelementptr inbounds [300 x i32], [300 x i32]* %2, i64 0, i64 %197
  %200 = load i32, i32* %199, align 4, !tbaa !5
  %201 = icmp slt i32 %200, %198
  %202 = select i1 %201, i32 %200, i32 %198
  %203 = add nuw nsw i64 %197, 1
  %204 = icmp eq i64 %203, %110
  br i1 %204, label %205, label %196, !llvm.loop !18

205:                                              ; preds = %196, %109, %177, %23, %8, %107
  %206 = phi i32 [ %108, %107 ], [ undef, %8 ], [ %25, %23 ], [ %108, %177 ], [ %108, %109 ], [ %108, %196 ]
  %207 = phi float [ %27, %107 ], [ %10, %8 ], [ %27, %23 ], [ %27, %177 ], [ %27, %109 ], [ %27, %196 ]
  %208 = phi i32 [ %25, %107 ], [ undef, %8 ], [ %25, %23 ], [ %182, %177 ], [ %25, %109 ], [ %202, %196 ]
  %209 = add nsw i32 %208, %206
  %210 = sitofp i32 %209 to float
  %211 = fmul float %207, 2.000000e+00
  %212 = fcmp olt float %211, %210
  br i1 %212, label %213, label %215

213:                                              ; preds = %205
  %214 = call i32 (i8*, ...) @printf(i8* nonnull dereferenceable(1) getelementptr inbounds ([3 x i8], [3 x i8]* @.str, i64 0, i64 0), i32 %206)
  br label %221

215:                                              ; preds = %205
  %216 = fcmp ogt float %211, %210
  br i1 %216, label %217, label %219

217:                                              ; preds = %215
  %218 = call i32 (i8*, ...) @printf(i8* nonnull dereferenceable(1) getelementptr inbounds ([3 x i8], [3 x i8]* @.str, i64 0, i64 0), i32 %208)
  br label %221

219:                                              ; preds = %215
  %220 = call i32 (i8*, ...) @printf(i8* nonnull dereferenceable(1) getelementptr inbounds ([6 x i8], [6 x i8]* @.str.1, i64 0, i64 0), i32 %208, i32 %206)
  br label %221

221:                                              ; preds = %217, %219, %213
  call void @llvm.lifetime.end.p0i8(i64 1200, i8* nonnull %4) #4
  call void @llvm.lifetime.end.p0i8(i64 4, i8* nonnull %3) #4
  ret void
}

; Function Attrs: argmemonly mustprogress nofree nosync nounwind willreturn
declare void @llvm.lifetime.start.p0i8(i64 immarg, i8* nocapture) #1

; Function Attrs: nofree nounwind
declare noundef i32 @__isoc99_scanf(i8* nocapture noundef readonly, ...) local_unnamed_addr #2

; Function Attrs: nofree nounwind
declare noundef i32 @printf(i8* nocapture noundef readonly, ...) local_unnamed_addr #2

; Function Attrs: argmemonly mustprogress nofree nosync nounwind willreturn
declare void @llvm.lifetime.end.p0i8(i64 immarg, i8* nocapture) #1

; Function Attrs: nofree nosync nounwind readnone willreturn
declare i32 @llvm.vector.reduce.smax.v4i32(<4 x i32>) #3

; Function Attrs: nofree nosync nounwind readnone willreturn
declare i32 @llvm.vector.reduce.smin.v4i32(<4 x i32>) #3


!llvm.module.flags = !{!0, !1, !2, !3}
!llvm.ident = !{!4}

!0 = !{i32 1, !"wchar_size", i32 4}
!1 = !{i32 7, !"PIC Level", i32 2}
!2 = !{i32 7, !"PIE Level", i32 2}
!3 = !{i32 7, !"uwtable", i32 1}
!4 = !{!"clang version 13.0.0"}
!5 = !{!6, !6, i64 0}
!6 = !{!"int", !7, i64 0}
!7 = !{!"omnipotent char", !8, i64 0}
!8 = !{!"Simple C/C++ TBAA"}
!9 = distinct !{!9, !10}
!10 = !{!"llvm.loop.mustprogress"}
!11 = distinct !{!11, !10}
!12 = distinct !{!12, !10, !13}
!13 = !{!"llvm.loop.isvectorized", i32 1}
!14 = distinct !{!14, !10}
!15 = distinct !{!15, !10, !13}
!16 = distinct !{!16, !10, !17, !13}
!17 = !{!"llvm.loop.unroll.runtime.disable"}
!18 = distinct !{!18, !10, !17, !13}
